target datalayout = "e-m:e-p270:32:32-p271:32:32-p272:64:64-i64:64-i128:128-f80:128-n8:16:32:64-S128"
target triple = "x86_64-pc-linux-gnu"

%struct.ZSTD_seqSymbol = type { i16, i8, i8, i32 }
%struct.ZSTD_seqSymbol_header = type { i32, i32 }
%struct.ZSTD_OffsetInfo = type { i32, i32 }

; Function Attrs: nounwind uwtable
define internal i64 @ZSTD_getOffsetInfo(ptr noundef %0, i32 noundef %1) #0 {
  %3 = alloca %struct.ZSTD_OffsetInfo, align 4
  %4 = alloca ptr, align 8
  %5 = alloca i32, align 4
  %6 = alloca ptr, align 8
  %7 = alloca i32, align 4
  %8 = alloca ptr, align 8
  %9 = alloca i32, align 4
  %10 = alloca i32, align 4
  store ptr %0, ptr %4, align 8
  store i32 %1, ptr %5, align 4
  call void @llvm.memset.p0.i64(ptr align 4 %3, i8 0, i64 8, i1 false)
  %11 = load i32, ptr %5, align 4
  %12 = icmp ne i32 %11, 0
  br i1 %12, label %13, label %74

13:                                               ; preds = %2
  %14 = load ptr, ptr %4, align 8
  store ptr %14, ptr %6, align 8
  %15 = load ptr, ptr %6, align 8
  %16 = getelementptr inbounds %struct.ZSTD_seqSymbol_header, ptr %15, i64 0
  %17 = getelementptr inbounds %struct.ZSTD_seqSymbol_header, ptr %16, i32 0, i32 1
  %18 = load i32, ptr %17, align 4
  store i32 %18, ptr %7, align 4
  %19 = load ptr, ptr %4, align 8
  %20 = getelementptr inbounds %struct.ZSTD_seqSymbol, ptr %19, i64 1
  store ptr %20, ptr %8, align 8
  %21 = load i32, ptr %7, align 4
  %22 = shl i32 1, %21
  store i32 %22, ptr %9, align 4
  store i32 0, ptr %10, align 4
  br label %23

23:                                               ; preds = %65, %13
  %24 = load i32, ptr %10, align 4
  %25 = load i32, ptr %9, align 4
  %26 = icmp ult i32 %24, %25
  br i1 %26, label %27, label %68

27:                                               ; preds = %23
  %28 = getelementptr inbounds %struct.ZSTD_OffsetInfo, ptr %3, i32 0, i32 1
  %29 = load i32, ptr %28, align 4
  %30 = load ptr, ptr %8, align 8
  %31 = load i32, ptr %10, align 4
  %32 = zext i32 %31 to i64
  %33 = getelementptr inbounds %struct.ZSTD_seqSymbol, ptr %30, i64 %32
  %34 = getelementptr inbounds %struct.ZSTD_seqSymbol, ptr %33, i32 0, i32 1
  %35 = load i8, ptr %34, align 2
  %36 = zext i8 %35 to i32
  %37 = icmp ugt i32 %29, %36
  br i1 %37, label %38, label %41

38:                                               ; preds = %27
  %39 = getelementptr inbounds %struct.ZSTD_OffsetInfo, ptr %3, i32 0, i32 1
  %40 = load i32, ptr %39, align 4
  br label %49

41:                                               ; preds = %27
  %42 = load ptr, ptr %8, align 8
  %43 = load i32, ptr %10, align 4
  %44 = zext i32 %43 to i64
  %45 = getelementptr inbounds %struct.ZSTD_seqSymbol, ptr %42, i64 %44
  %46 = getelementptr inbounds %struct.ZSTD_seqSymbol, ptr %45, i32 0, i32 1
  %47 = load i8, ptr %46, align 2
  %48 = zext i8 %47 to i32
  br label %49

49:                                               ; preds = %41, %38
  %50 = phi i32 [ %40, %38 ], [ %48, %41 ]
  %51 = getelementptr inbounds %struct.ZSTD_OffsetInfo, ptr %3, i32 0, i32 1
  store i32 %50, ptr %51, align 4
  %52 = load ptr, ptr %8, align 8
  %53 = load i32, ptr %10, align 4
  %54 = zext i32 %53 to i64
  %55 = getelementptr inbounds %struct.ZSTD_seqSymbol, ptr %52, i64 %54
  %56 = getelementptr inbounds %struct.ZSTD_seqSymbol, ptr %55, i32 0, i32 1
  %57 = load i8, ptr %56, align 2
  %58 = zext i8 %57 to i32
  %59 = icmp sgt i32 %58, 22
  br i1 %59, label %60, label %64

60:                                               ; preds = %49
  %61 = getelementptr inbounds %struct.ZSTD_OffsetInfo, ptr %3, i32 0, i32 0
  %62 = load i32, ptr %61, align 4
  %63 = add i32 %62, 1
  store i32 %63, ptr %61, align 4
  br label %64

64:                                               ; preds = %60, %49
  br label %65

65:                                               ; preds = %64
  %66 = load i32, ptr %10, align 4
  %67 = add i32 %66, 1
  store i32 %67, ptr %10, align 4
  br label %23, !llvm.loop !17

68:                                               ; preds = %23
  %69 = load i32, ptr %7, align 4
  %70 = sub i32 8, %69
  %71 = getelementptr inbounds %struct.ZSTD_OffsetInfo, ptr %3, i32 0, i32 0
  %72 = load i32, ptr %71, align 4
  %73 = shl i32 %72, %70
  store i32 %73, ptr %71, align 4
  br label %74

74:                                               ; preds = %68, %2
  %75 = load i64, ptr %3, align 4
  ret i64 %75
}